; Function Attrs: nounwind uwtable
define ptr @l_Lean_ScopedEnvExtension_add___rarg(ptr noundef %0, ptr noundef %1, ptr noundef %2, ptr noundef %3, ptr noundef %4, i8 noundef zeroext %5) local_unnamed_addr #2 {
  %7 = getelementptr inbounds nuw i8, ptr %0, i64 16
  %8 = load ptr, ptr %7, align 8, !tbaa !9
  %9 = ptrtoint ptr %8 to i64
  %10 = and i64 %9, 1
  %.not = icmp eq i64 %10, 0
  br i1 %.not, label %11, label %lean_inc.exit18

11:                                               ; preds = %6
  %.val.i = load i32, ptr %8, align 4, !tbaa !4
  %12 = icmp sgt i32 %.val.i, 0
  br i1 %12, label %13, label %15, !prof !11

13:                                               ; preds = %11
  %14 = add nuw i32 %.val.i, 1
  store i32 %14, ptr %8, align 4, !tbaa !4
  br label %lean_inc.exit18

15:                                               ; preds = %11
  %.not.i22 = icmp eq i32 %.val.i, 0
  br i1 %.not.i22, label %lean_inc.exit18, label %16

16:                                               ; preds = %15
  tail call void @lean_inc_ref_cold(ptr noundef nonnull %8) #7
  br label %lean_inc.exit18

lean_inc.exit18:                                  ; preds = %16, %15, %13, %6
  %17 = ptrtoint ptr %0 to i64
  %18 = and i64 %17, 1
  %.not26 = icmp eq i64 %18, 0
  br i1 %.not26, label %19, label %lean_dec.exit19

19:                                               ; preds = %lean_inc.exit18
  %20 = load i32, ptr %0, align 4, !tbaa !4
  %21 = icmp sgt i32 %20, 1
  br i1 %21, label %22, label %24, !prof !11

22:                                               ; preds = %19
  %23 = add nsw i32 %20, -1
  store i32 %23, ptr %0, align 4, !tbaa !4
  br label %lean_dec.exit19

24:                                               ; preds = %19
  %.not.i = icmp eq i32 %20, 0
  br i1 %.not.i, label %lean_dec.exit19, label %25

25:                                               ; preds = %24
  tail call void @lean_dec_ref_cold(ptr noundef nonnull %0) #7
  br label %lean_dec.exit19

lean_dec.exit19:                                  ; preds = %25, %24, %22, %lean_inc.exit18
  %26 = getelementptr inbounds nuw i8, ptr %1, i64 8
  %27 = load ptr, ptr %26, align 8, !tbaa !9
  %28 = ptrtoint ptr %27 to i64
  %29 = and i64 %28, 1
  %.not27 = icmp eq i64 %29, 0
  br i1 %.not27, label %30, label %lean_inc.exit

30:                                               ; preds = %lean_dec.exit19
  %.val.i23 = load i32, ptr %27, align 4, !tbaa !4
  %31 = icmp sgt i32 %.val.i23, 0
  br i1 %31, label %32, label %34, !prof !11

32:                                               ; preds = %30
  %33 = add nuw i32 %.val.i23, 1
  store i32 %33, ptr %27, align 4, !tbaa !4
  br label %lean_inc.exit

34:                                               ; preds = %30
  %.not.i24 = icmp eq i32 %.val.i23, 0
  br i1 %.not.i24, label %lean_inc.exit, label %35

35:                                               ; preds = %34
  tail call void @lean_inc_ref_cold(ptr noundef nonnull %27) #7
  br label %lean_inc.exit

lean_inc.exit:                                    ; preds = %35, %34, %32, %lean_dec.exit19
  %36 = ptrtoint ptr %1 to i64
  %37 = and i64 %36, 1
  %.not28 = icmp eq i64 %37, 0
  br i1 %.not28, label %38, label %lean_dec.exit

38:                                               ; preds = %lean_inc.exit
  %39 = load i32, ptr %1, align 4, !tbaa !4
  %40 = icmp sgt i32 %39, 1
  br i1 %40, label %41, label %43, !prof !11

41:                                               ; preds = %38
  %42 = add nsw i32 %39, -1
  store i32 %42, ptr %1, align 4, !tbaa !4
  br label %lean_dec.exit

43:                                               ; preds = %38
  %.not.i20 = icmp eq i32 %39, 0
  br i1 %.not.i20, label %lean_dec.exit, label %44

44:                                               ; preds = %43
  tail call void @lean_dec_ref_cold(ptr noundef nonnull %1) #7
  br label %lean_dec.exit

lean_dec.exit:                                    ; preds = %44, %43, %41, %lean_inc.exit
  tail call void @lean_inc_heartbeat() #7
  %45 = tail call noalias ptr @mi_malloc_small(i64 noundef 56) #7
  %46 = icmp eq ptr %45, null
  br i1 %46, label %47, label %lean_alloc_closure.exit

47:                                               ; preds = %lean_dec.exit
  tail call void @lean_internal_panic_out_of_memory() #8
  unreachable

lean_alloc_closure.exit:                          ; preds = %lean_dec.exit
  %48 = zext i8 %5 to i64
  %49 = shl nuw nsw i64 %48, 1
  %50 = or disjoint i64 %49, 1
  %51 = inttoptr i64 %50 to ptr
  %52 = getelementptr inbounds nuw i8, ptr %45, i64 4
  store i32 1, ptr %45, align 4, !tbaa !4
  store i32 -184549320, ptr %52, align 4
  %53 = getelementptr inbounds nuw i8, ptr %45, i64 8
  store ptr @l_Lean_ScopedEnvExtension_add___rarg___lambda__2___boxed, ptr %53, align 8, !tbaa !9
  %54 = getelementptr inbounds nuw i8, ptr %45, i64 16
  store i16 5, ptr %54, align 8, !tbaa !14
  %55 = getelementptr inbounds nuw i8, ptr %45, i64 18
  store i16 4, ptr %55, align 2, !tbaa !14
  %56 = getelementptr inbounds nuw i8, ptr %45, i64 24
  store ptr %2, ptr %56, align 8, !tbaa !9
  %57 = getelementptr inbounds nuw i8, ptr %45, i64 32
  store ptr %3, ptr %57, align 8, !tbaa !9
  %58 = getelementptr inbounds nuw i8, ptr %45, i64 40
  store ptr %4, ptr %58, align 8, !tbaa !9
  %59 = getelementptr inbounds nuw i8, ptr %45, i64 48
  store ptr %51, ptr %59, align 8, !tbaa !9
  %60 = tail call ptr @lean_apply_4(ptr noundef %8, ptr noundef nonnull inttoptr (i64 1 to ptr), ptr noundef nonnull inttoptr (i64 1 to ptr), ptr noundef %27, ptr noundef nonnull %45) #7
  ret ptr %60
}